; Function Attrs: mustprogress nounwind uwtable
define hidden void @_ZN12MemAllocator10Allocation32notify_allocation_dtrace_samplerEv(ptr nocapture noundef nonnull readonly align 8 dereferenceable(41) %0) local_unnamed_addr #0 align 2 {
  %2 = load i8, ptr @DTraceAllocProbes, align 1
  %3 = trunc i8 %2 to i1
  br i1 %3, label %4, label %33

4:                                                ; preds = %1
  %5 = getelementptr inbounds i8, ptr %0, i64 16
  %6 = load ptr, ptr %5, align 8
  %7 = load ptr, ptr %6, align 8
  %8 = load i8, ptr @UseCompressedClassPointers, align 1
  %9 = trunc i8 %8 to i1
  %10 = getelementptr inbounds i8, ptr %7, i64 8
  br i1 %9, label %11, label %21

11:                                               ; preds = %4
  %12 = load i32, ptr %10, align 8
  %13 = load ptr, ptr @_ZN23CompressedKlassPointers5_baseE, align 8
  %14 = load i32, ptr @_ZN23CompressedKlassPointers6_shiftE, align 4
  %15 = ptrtoint ptr %13 to i64
  %16 = zext i32 %12 to i64
  %17 = zext nneg i32 %14 to i64
  %18 = shl i64 %16, %17
  %19 = add i64 %18, %15
  %20 = inttoptr i64 %19 to ptr
  br label %_ZNK7oopDesc5klassEv.exit

21:                                               ; preds = %4
  %22 = load ptr, ptr %10, align 8
  br label %_ZNK7oopDesc5klassEv.exit

_ZNK7oopDesc5klassEv.exit:                        ; preds = %11, %21
  %.0.i = phi ptr [ %20, %11 ], [ %22, %21 ]
  %23 = load ptr, ptr %0, align 8
  %24 = getelementptr inbounds i8, ptr %23, i64 24
  %25 = load i64, ptr %24, align 8
  %.not = icmp eq ptr %.0.i, null
  br i1 %.not, label %33, label %26

26:                                               ; preds = %_ZNK7oopDesc5klassEv.exit
  %27 = getelementptr inbounds i8, ptr %.0.i, i64 24
  %28 = load ptr, ptr %27, align 8
  %.not3 = icmp eq ptr %28, null
  br i1 %.not3, label %33, label %29

29:                                               ; preds = %26
  %30 = getelementptr inbounds i8, ptr %0, i64 8
  %31 = load ptr, ptr %30, align 8
  %32 = tail call noundef i32 @_ZN13SharedRuntime19dtrace_object_allocEP10JavaThreadP7oopDescm(ptr noundef %31, ptr noundef nonnull %7, i64 noundef %25) #10
  br label %33

33:                                               ; preds = %_ZNK7oopDesc5klassEv.exit, %26, %29, %1
  ret void
}